target datalayout = "e-m:e-p270:32:32-p271:32:32-p272:64:64-i64:64-i128:128-f80:128-n8:16:32:64-S128"
target triple = "x86_64-pc-linux-gnu"

%class.btVector3 = type { [4 x float] }
%class.btGjkPairDetector = type <{ %struct.btDiscreteCollisionDetectorInterface, %class.btVector3, ptr, ptr, ptr, ptr, i32, i32, float, float, i8, [3 x i8], float, i32, i32, i32, i32, i32, [4 x i8] }>
%struct.btDiscreteCollisionDetectorInterface = type { ptr }

; Function Attrs: mustprogress nounwind uwtable
define linkonce_odr dso_local void @_ZN36btDiscreteCollisionDetectorInterfaceD2Ev(ptr noundef nonnull align 8 dereferenceable(8) %0) unnamed_addr #1 comdat align 2 {
  %2 = alloca ptr, align 8
  store ptr %0, ptr %2, align 8, !tbaa !40
  ret void
}

; Function Attrs: inlinehint mustprogress nounwind uwtable
define linkonce_odr dso_local void @_ZN9btVector3C2ERKfS1_S1_(ptr noundef nonnull align 4 dereferenceable(16) %0, ptr noundef nonnull align 4 dereferenceable(4) %1, ptr noundef nonnull align 4 dereferenceable(4) %2, ptr noundef nonnull align 4 dereferenceable(4) %3) unnamed_addr #3 comdat align 2 {
  %5 = alloca ptr, align 8
  %6 = alloca ptr, align 8
  %7 = alloca ptr, align 8
  %8 = alloca ptr, align 8
  store ptr %0, ptr %5, align 8, !tbaa !42
  store ptr %1, ptr %6, align 8, !tbaa !44
  store ptr %2, ptr %7, align 8, !tbaa !44
  store ptr %3, ptr %8, align 8, !tbaa !44
  %9 = load ptr, ptr %5, align 8
  %10 = load ptr, ptr %6, align 8, !tbaa !44
  %11 = load float, ptr %10, align 4, !tbaa !22
  %12 = getelementptr inbounds nuw %class.btVector3, ptr %9, i32 0, i32 0
  %13 = getelementptr inbounds [4 x float], ptr %12, i64 0, i64 0
  store float %11, ptr %13, align 4, !tbaa !22
  %14 = load ptr, ptr %7, align 8, !tbaa !44
  %15 = load float, ptr %14, align 4, !tbaa !22
  %16 = getelementptr inbounds nuw %class.btVector3, ptr %9, i32 0, i32 0
  %17 = getelementptr inbounds [4 x float], ptr %16, i64 0, i64 1
  store float %15, ptr %17, align 4, !tbaa !22
  %18 = load ptr, ptr %8, align 8, !tbaa !44
  %19 = load float, ptr %18, align 4, !tbaa !22
  %20 = getelementptr inbounds nuw %class.btVector3, ptr %9, i32 0, i32 0
  %21 = getelementptr inbounds [4 x float], ptr %20, i64 0, i64 2
  store float %19, ptr %21, align 4, !tbaa !22
  %22 = getelementptr inbounds nuw %class.btVector3, ptr %9, i32 0, i32 0
  %23 = getelementptr inbounds [4 x float], ptr %22, i64 0, i64 3
  store float 0.000000e+00, ptr %23, align 4, !tbaa !22
  ret void
}

; Function Attrs: inlinehint mustprogress nounwind uwtable
define linkonce_odr dso_local void @_ZN36btDiscreteCollisionDetectorInterfaceC2Ev(ptr noundef nonnull align 8 dereferenceable(8) %0) unnamed_addr #3 comdat align 2 {
  %2 = alloca ptr, align 8
  store ptr %0, ptr %2, align 8, !tbaa !40
  %3 = load ptr, ptr %2, align 8
  store ptr getelementptr inbounds inrange(-16, 24) ({ [5 x ptr] }, ptr @_ZTV36btDiscreteCollisionDetectorInterface, i32 0, i32 0, i32 2), ptr %3, align 8, !tbaa !20
  ret void
}

; Function Attrs: mustprogress uwtable
define dso_local void @_ZN17btGjkPairDetectorC2EPK13btConvexShapeS2_iiffP22btVoronoiSimplexSolverP30btConvexPenetrationDepthSolver(ptr noundef nonnull align 8 dereferenceable(100) %0, ptr noundef %1, ptr noundef %2, i32 noundef %3, i32 noundef %4, float noundef %5, float noundef %6, ptr noundef %7, ptr noundef %8) unnamed_addr #2 align 2 personality ptr @__gxx_personality_v0 {
  %10 = alloca ptr, align 8
  %11 = alloca ptr, align 8
  %12 = alloca ptr, align 8
  %13 = alloca i32, align 4
  %14 = alloca i32, align 4
  %15 = alloca float, align 4
  %16 = alloca float, align 4
  %17 = alloca ptr, align 8
  %18 = alloca ptr, align 8
  %19 = alloca float, align 4
  %20 = alloca float, align 4
  %21 = alloca float, align 4
  %22 = alloca ptr, align 8
  %23 = alloca i32, align 4
  store ptr %0, ptr %10, align 8, !tbaa !12
  store ptr %1, ptr %11, align 8, !tbaa !14
  store ptr %2, ptr %12, align 8, !tbaa !14
  store i32 %3, ptr %13, align 4, !tbaa !9
  store i32 %4, ptr %14, align 4, !tbaa !9
  store float %5, ptr %15, align 4, !tbaa !22
  store float %6, ptr %16, align 4, !tbaa !22
  store ptr %7, ptr %17, align 8, !tbaa !16
  store ptr %8, ptr %18, align 8, !tbaa !18
  %24 = load ptr, ptr %10, align 8
  call void @_ZN36btDiscreteCollisionDetectorInterfaceC2Ev(ptr noundef nonnull align 8 dereferenceable(8) %24) #14
  store ptr getelementptr inbounds inrange(-16, 24) ({ [5 x ptr] }, ptr @_ZTV17btGjkPairDetector, i32 0, i32 0, i32 2), ptr %24, align 8, !tbaa !20
  %25 = getelementptr inbounds nuw %class.btGjkPairDetector, ptr %24, i32 0, i32 1
  call void @llvm.lifetime.start.p0(i64 4, ptr %19) #14
  store float 0.000000e+00, ptr %19, align 4, !tbaa !22
  call void @llvm.lifetime.start.p0(i64 4, ptr %20) #14
  store float 1.000000e+00, ptr %20, align 4, !tbaa !22
  call void @llvm.lifetime.start.p0(i64 4, ptr %21) #14
  store float 0.000000e+00, ptr %21, align 4, !tbaa !22
  invoke void @_ZN9btVector3C2ERKfS1_S1_(ptr noundef nonnull align 4 dereferenceable(16) %25, ptr noundef nonnull align 4 dereferenceable(4) %19, ptr noundef nonnull align 4 dereferenceable(4) %20, ptr noundef nonnull align 4 dereferenceable(4) %21)
          to label %26 unwind label %47

26:                                               ; preds = %9
  call void @llvm.lifetime.end.p0(i64 4, ptr %21) #14
  call void @llvm.lifetime.end.p0(i64 4, ptr %20) #14
  call void @llvm.lifetime.end.p0(i64 4, ptr %19) #14
  %27 = getelementptr inbounds nuw %class.btGjkPairDetector, ptr %24, i32 0, i32 2
  %28 = load ptr, ptr %18, align 8, !tbaa !18
  store ptr %28, ptr %27, align 8, !tbaa !24
  %29 = getelementptr inbounds nuw %class.btGjkPairDetector, ptr %24, i32 0, i32 3
  %30 = load ptr, ptr %17, align 8, !tbaa !16
  store ptr %30, ptr %29, align 8, !tbaa !29
  %31 = getelementptr inbounds nuw %class.btGjkPairDetector, ptr %24, i32 0, i32 4
  %32 = load ptr, ptr %11, align 8, !tbaa !14
  store ptr %32, ptr %31, align 8, !tbaa !30
  %33 = getelementptr inbounds nuw %class.btGjkPairDetector, ptr %24, i32 0, i32 5
  %34 = load ptr, ptr %12, align 8, !tbaa !14
  store ptr %34, ptr %33, align 8, !tbaa !31
  %35 = getelementptr inbounds nuw %class.btGjkPairDetector, ptr %24, i32 0, i32 6
  %36 = load i32, ptr %13, align 4, !tbaa !9
  store i32 %36, ptr %35, align 8, !tbaa !32
  %37 = getelementptr inbounds nuw %class.btGjkPairDetector, ptr %24, i32 0, i32 7
  %38 = load i32, ptr %14, align 4, !tbaa !9
  store i32 %38, ptr %37, align 4, !tbaa !33
  %39 = getelementptr inbounds nuw %class.btGjkPairDetector, ptr %24, i32 0, i32 8
  %40 = load float, ptr %15, align 4, !tbaa !22
  store float %40, ptr %39, align 8, !tbaa !34
  %41 = getelementptr inbounds nuw %class.btGjkPairDetector, ptr %24, i32 0, i32 9
  %42 = load float, ptr %16, align 4, !tbaa !22
  store float %42, ptr %41, align 4, !tbaa !35
  %43 = getelementptr inbounds nuw %class.btGjkPairDetector, ptr %24, i32 0, i32 10
  store i8 0, ptr %43, align 8, !tbaa !36
  %44 = getelementptr inbounds nuw %class.btGjkPairDetector, ptr %24, i32 0, i32 13
  store i32 -1, ptr %44, align 8, !tbaa !37
  %45 = getelementptr inbounds nuw %class.btGjkPairDetector, ptr %24, i32 0, i32 16
  store i32 1, ptr %45, align 4, !tbaa !38
  %46 = getelementptr inbounds nuw %class.btGjkPairDetector, ptr %24, i32 0, i32 17
  store i32 1, ptr %46, align 8, !tbaa !39
  ret void

47:                                               ; preds = %9
  %48 = landingpad { ptr, i32 }
          cleanup
  %49 = extractvalue { ptr, i32 } %48, 0
  store ptr %49, ptr %22, align 8
  %50 = extractvalue { ptr, i32 } %48, 1
  store i32 %50, ptr %23, align 4
  call void @llvm.lifetime.end.p0(i64 4, ptr %21) #14
  call void @llvm.lifetime.end.p0(i64 4, ptr %20) #14
  call void @llvm.lifetime.end.p0(i64 4, ptr %19) #14
  call void @_ZN36btDiscreteCollisionDetectorInterfaceD2Ev(ptr noundef nonnull align 8 dereferenceable(8) %24) #14
  br label %51

51:                                               ; preds = %47
  %52 = load ptr, ptr %22, align 8
  %53 = load i32, ptr %23, align 4
  %54 = insertvalue { ptr, i32 } poison, ptr %52, 0
  %55 = insertvalue { ptr, i32 } %54, i32 %53, 1
  resume { ptr, i32 } %55
}