; Function Attrs: mustprogress nofree norecurse nosync nounwind willreturn memory(argmem: write) uwtable
define dso_local void @_ZN17btGjkPairDetectorC2EPK13btConvexShapeS2_iiffP22btVoronoiSimplexSolverP30btConvexPenetrationDepthSolver(ptr noundef nonnull writeonly align 8 captures(none) dereferenceable(100) initializes((0, 73), (80, 84), (92, 100)) %0, ptr noundef %1, ptr noundef %2, i32 noundef %3, i32 noundef %4, float noundef %5, float noundef %6, ptr noundef %7, ptr noundef %8) unnamed_addr #2 align 2 personality ptr @__gxx_personality_v0 {
  store ptr getelementptr inbounds nuw inrange(-16, 24) (i8, ptr @_ZTV17btGjkPairDetector, i64 16), ptr %0, align 8, !tbaa !4
  %10 = getelementptr inbounds nuw i8, ptr %0, i64 8
  store float 0.000000e+00, ptr %10, align 8, !tbaa !7
  %11 = getelementptr inbounds nuw i8, ptr %0, i64 12
  store float 1.000000e+00, ptr %11, align 4, !tbaa !7
  %12 = getelementptr inbounds nuw i8, ptr %0, i64 16
  store float 0.000000e+00, ptr %12, align 8, !tbaa !7
  %13 = getelementptr inbounds nuw i8, ptr %0, i64 20
  store float 0.000000e+00, ptr %13, align 4, !tbaa !7
  %14 = getelementptr inbounds nuw i8, ptr %0, i64 24
  store ptr %8, ptr %14, align 8, !tbaa !10
  %15 = getelementptr inbounds nuw i8, ptr %0, i64 32
  store ptr %7, ptr %15, align 8, !tbaa !20
  %16 = getelementptr inbounds nuw i8, ptr %0, i64 40
  store ptr %1, ptr %16, align 8, !tbaa !21
  %17 = getelementptr inbounds nuw i8, ptr %0, i64 48
  store ptr %2, ptr %17, align 8, !tbaa !22
  %18 = getelementptr inbounds nuw i8, ptr %0, i64 56
  store i32 %3, ptr %18, align 8, !tbaa !25
  %19 = getelementptr inbounds nuw i8, ptr %0, i64 60
  store i32 %4, ptr %19, align 4, !tbaa !26
  %20 = getelementptr inbounds nuw i8, ptr %0, i64 64
  store float %5, ptr %20, align 8, !tbaa !27
  %21 = getelementptr inbounds nuw i8, ptr %0, i64 68
  store float %6, ptr %21, align 4, !tbaa !28
  %22 = getelementptr inbounds nuw i8, ptr %0, i64 72
  store i8 0, ptr %22, align 8, !tbaa !29
  %23 = getelementptr inbounds nuw i8, ptr %0, i64 80
  store i32 -1, ptr %23, align 8, !tbaa !30
  %24 = getelementptr inbounds nuw i8, ptr %0, i64 92
  store i32 1, ptr %24, align 4, !tbaa !31
  %25 = getelementptr inbounds nuw i8, ptr %0, i64 96
  store i32 1, ptr %25, align 8, !tbaa !32
  ret void
}